; Function Attrs: mustprogress nounwind uwtable
define dso_local void @_ZN4llvm8codeview19discoverTypeIndicesERKNS0_8CVRecordINS0_12TypeLeafKindEEERNS_15SmallVectorImplINS0_9TypeIndexEEE(ptr nocapture noundef nonnull readonly align 8 dereferenceable(16) %0, ptr noundef nonnull align 8 dereferenceable(16) %1) local_unnamed_addr #0 {
  %3 = alloca %"class.llvm::SmallVector", align 8
  %.sroa.0.0.copyload = load ptr, ptr %0, align 8
  %.sroa.2.0..sroa_idx = getelementptr inbounds i8, ptr %0, i64 8
  %.sroa.2.0.copyload = load i64, ptr %.sroa.2.0..sroa_idx, align 8
  call void @llvm.lifetime.start.p0(i64 64, ptr nonnull %3)
  %4 = getelementptr inbounds i8, ptr %3, i64 16
  call void @_ZN4llvm15SmallVectorBaseIjEC2EPvm(ptr noundef nonnull align 8 dereferenceable(16) %3, ptr noundef nonnull %4, i64 noundef 4) #13
  %5 = getelementptr inbounds nuw i8, ptr %.sroa.0.0.copyload, i64 2
  call void @llvm.assume(i1 true) [ "align"(ptr %5, i64 1) ]
  %.0.copyload.i.i.i.i.i = load i16, ptr %5, align 1
  %6 = add i64 %.sroa.2.0.copyload, -4
  %7 = getelementptr inbounds i8, ptr %.sroa.0.0.copyload, i64 4
  call fastcc void @_ZL19discoverTypeIndicesN4llvm8ArrayRefIhEENS_8codeview12TypeLeafKindERNS_15SmallVectorImplINS2_11TiReferenceEEE(ptr nonnull %7, i64 %6, i16 noundef zeroext %.0.copyload.i.i.i.i.i, ptr noundef nonnull align 8 dereferenceable(16) %3)
  %8 = load ptr, ptr %3, align 8
  %9 = call noundef i64 @_ZNK4llvm15SmallVectorBaseIjE4sizeEv(ptr noundef nonnull align 8 dereferenceable(16) %3) #13
  call fastcc void @_ZL26resolveTypeIndexReferencesN4llvm8ArrayRefIhEENS0_INS_8codeview11TiReferenceEEERNS_15SmallVectorImplINS2_9TypeIndexEEE(ptr %.sroa.0.0.copyload, i64 %.sroa.2.0.copyload, ptr %8, i64 %9, ptr noundef nonnull align 8 dereferenceable(16) %1)
  %10 = call noundef i64 @_ZNK4llvm15SmallVectorBaseIjE4sizeEv(ptr noundef nonnull align 8 dereferenceable(16) %3) #13
  %11 = load ptr, ptr %3, align 8
  %12 = icmp eq ptr %11, %4
  br i1 %12, label %_ZN4llvm8codeview19discoverTypeIndicesENS_8ArrayRefIhEERNS_15SmallVectorImplINS0_9TypeIndexEEE.exit, label %13

13:                                               ; preds = %2
  call void @free(ptr noundef %11) #13
  br label %_ZN4llvm8codeview19discoverTypeIndicesENS_8ArrayRefIhEERNS_15SmallVectorImplINS0_9TypeIndexEEE.exit

_ZN4llvm8codeview19discoverTypeIndicesENS_8ArrayRefIhEERNS_15SmallVectorImplINS0_9TypeIndexEEE.exit: ; preds = %2, %13
  call void @llvm.lifetime.end.p0(i64 64, ptr nonnull %3)
  ret void
}